target datalayout = "e-m:e-p270:32:32-p271:32:32-p272:64:64-i64:64-i128:128-f80:128-n8:16:32:64-S128"
target triple = "x86_64-pc-linux-gnu"

@libHandles = internal global [257 x ptr] zeroinitializer, align 16
@.str.7 = private unnamed_addr constant [37 x i8] c"Warning: failed to close library %d\0A\00", align 1

; Function Attrs: nounwind uwtable
define void @close_libs() #0 {
  %1 = alloca i32, align 4
  call void @llvm.lifetime.start.p0(i64 4, ptr %1) #6
  store i32 0, ptr %1, align 4, !tbaa !3
  br label %2

2:                                                ; preds = %22, %0
  %3 = load i32, ptr %1, align 4, !tbaa !3
  %4 = sext i32 %3 to i64
  %5 = getelementptr inbounds [257 x ptr], ptr @libHandles, i64 0, i64 %4
  %6 = load ptr, ptr %5, align 8, !tbaa !15
  %7 = icmp ne ptr %6, null
  br i1 %7, label %8, label %25

8:                                                ; preds = %2
  %9 = load i32, ptr %1, align 4, !tbaa !3
  %10 = sext i32 %9 to i64
  %11 = getelementptr inbounds [257 x ptr], ptr @libHandles, i64 0, i64 %10
  %12 = load ptr, ptr %11, align 8, !tbaa !15
  %13 = call i32 @dlclose(ptr noundef %12) #6
  %14 = icmp ne i32 %13, 0
  br i1 %14, label %15, label %18

15:                                               ; preds = %8
  %16 = load i32, ptr %1, align 4, !tbaa !3
  %17 = call i32 (ptr, ...) @printf(ptr noundef @.str.7, i32 noundef %16)
  br label %18

18:                                               ; preds = %15, %8
  %19 = load i32, ptr %1, align 4, !tbaa !3
  %20 = sext i32 %19 to i64
  %21 = getelementptr inbounds [257 x ptr], ptr @libHandles, i64 0, i64 %20
  store ptr null, ptr %21, align 8, !tbaa !15
  br label %22

22:                                               ; preds = %18
  %23 = load i32, ptr %1, align 4, !tbaa !3
  %24 = add nsw i32 %23, 1
  store i32 %24, ptr %1, align 4, !tbaa !3
  br label %2, !llvm.loop !18

25:                                               ; preds = %2
  call void @llvm.lifetime.end.p0(i64 4, ptr %1) #6
  ret void
}