; Function Attrs: nounwind uwtable
define void @close_libs() local_unnamed_addr #0 {
  %1 = load ptr, ptr @libHandles, align 16, !tbaa !6
  %.not7 = icmp eq ptr %1, null
  br i1 %.not7, label %._crit_edge, label %.lr.ph

.lr.ph:                                           ; preds = %0, %8
  %indvars.iv = phi i64 [ %indvars.iv.next, %8 ], [ 0, %0 ]
  %2 = phi ptr [ %10, %8 ], [ %1, %0 ]
  %3 = phi ptr [ %9, %8 ], [ @libHandles, %0 ]
  %4 = tail call i32 @dlclose(ptr noundef nonnull %2) #9
  %.not6 = icmp eq i32 %4, 0
  br i1 %.not6, label %8, label %5

5:                                                ; preds = %.lr.ph
  %6 = trunc nuw nsw i64 %indvars.iv to i32
  %7 = tail call i32 (ptr, ...) @printf(ptr noundef nonnull dereferenceable(1) @.str.7, i32 noundef %6)
  br label %8

8:                                                ; preds = %5, %.lr.ph
  store ptr null, ptr %3, align 8, !tbaa !6
  %indvars.iv.next = add nuw nsw i64 %indvars.iv, 1
  %9 = getelementptr inbounds nuw [257 x ptr], ptr @libHandles, i64 0, i64 %indvars.iv.next
  %10 = load ptr, ptr %9, align 8, !tbaa !6
  %.not = icmp eq ptr %10, null
  br i1 %.not, label %._crit_edge, label %.lr.ph, !llvm.loop !10

._crit_edge:                                      ; preds = %8, %0
  ret void
}